target datalayout = "e-m:e-p270:32:32-p271:32:32-p272:64:64-i64:64-i128:128-f80:128-n8:16:32:64-S128"
target triple = "x86_64-pc-linux-gnu"

%struct.normal_encoding = type { %struct.encoding, [256 x i8], ptr, ptr, ptr, ptr, ptr, ptr, ptr, ptr, ptr }
%struct.encoding = type { [3 x ptr], [2 x ptr], ptr, ptr, ptr, ptr, ptr, ptr, ptr, ptr, ptr, ptr, i32, i8, i8 }

; Function Attrs: nounwind uwtable
define internal i32 @utf8_toUtf16(ptr noundef %0, ptr noundef %1, ptr noundef %2, ptr noundef %3, ptr noundef %4) #0 {
  %6 = alloca i32, align 4
  %7 = alloca ptr, align 8
  %8 = alloca ptr, align 8
  %9 = alloca ptr, align 8
  %10 = alloca ptr, align 8
  %11 = alloca ptr, align 8
  %12 = alloca i32, align 4
  %13 = alloca ptr, align 8
  %14 = alloca ptr, align 8
  %15 = alloca i64, align 8
  %16 = alloca i32, align 4
  store ptr %0, ptr %7, align 8, !tbaa !45
  store ptr %1, ptr %8, align 8, !tbaa !9
  store ptr %2, ptr %9, align 8, !tbaa !4
  store ptr %3, ptr %10, align 8, !tbaa !47
  store ptr %4, ptr %11, align 8, !tbaa !18
  call void @llvm.lifetime.start.p0(i64 4, ptr %12) #4
  store i32 0, ptr %12, align 4, !tbaa !16
  call void @llvm.lifetime.start.p0(i64 8, ptr %13) #4
  %17 = load ptr, ptr %10, align 8, !tbaa !47
  %18 = load ptr, ptr %17, align 8, !tbaa !18
  store ptr %18, ptr %13, align 8, !tbaa !18
  call void @llvm.lifetime.start.p0(i64 8, ptr %14) #4
  %19 = load ptr, ptr %8, align 8, !tbaa !9
  %20 = load ptr, ptr %19, align 8, !tbaa !4
  store ptr %20, ptr %14, align 8, !tbaa !4
  br label %21

21:                                               ; preds = %172, %5
  %22 = load ptr, ptr %14, align 8, !tbaa !4
  %23 = load ptr, ptr %9, align 8, !tbaa !4
  %24 = icmp ult ptr %22, %23
  br i1 %24, label %25, label %29

25:                                               ; preds = %21
  %26 = load ptr, ptr %13, align 8, !tbaa !18
  %27 = load ptr, ptr %11, align 8, !tbaa !18
  %28 = icmp ult ptr %26, %27
  br label %29

29:                                               ; preds = %25, %21
  %30 = phi i1 [ false, %21 ], [ %28, %25 ]
  br i1 %30, label %31, label %173

31:                                               ; preds = %29
  %32 = load ptr, ptr %7, align 8, !tbaa !45
  %33 = getelementptr inbounds nuw %struct.normal_encoding, ptr %32, i32 0, i32 1
  %34 = load ptr, ptr %14, align 8, !tbaa !4
  %35 = load i8, ptr %34, align 1, !tbaa !13
  %36 = zext i8 %35 to i64
  %37 = getelementptr inbounds nuw [256 x i8], ptr %33, i64 0, i64 %36
  %38 = load i8, ptr %37, align 1, !tbaa !13
  %39 = zext i8 %38 to i32
  switch i32 %39, label %165 [
    i32 5, label %40
    i32 6, label %66
    i32 7, label %99
  ]

40:                                               ; preds = %31
  %41 = load ptr, ptr %9, align 8, !tbaa !4
  %42 = load ptr, ptr %14, align 8, !tbaa !4
  %43 = ptrtoint ptr %41 to i64
  %44 = ptrtoint ptr %42 to i64
  %45 = sub i64 %43, %44
  %46 = icmp slt i64 %45, 2
  br i1 %46, label %47, label %48

47:                                               ; preds = %40
  store i32 1, ptr %12, align 4, !tbaa !16
  br label %179

48:                                               ; preds = %40
  %49 = load ptr, ptr %14, align 8, !tbaa !4
  %50 = getelementptr inbounds i8, ptr %49, i64 0
  %51 = load i8, ptr %50, align 1, !tbaa !13
  %52 = sext i8 %51 to i32
  %53 = and i32 %52, 31
  %54 = shl i32 %53, 6
  %55 = load ptr, ptr %14, align 8, !tbaa !4
  %56 = getelementptr inbounds i8, ptr %55, i64 1
  %57 = load i8, ptr %56, align 1, !tbaa !13
  %58 = sext i8 %57 to i32
  %59 = and i32 %58, 63
  %60 = or i32 %54, %59
  %61 = trunc i32 %60 to i16
  %62 = load ptr, ptr %13, align 8, !tbaa !18
  %63 = getelementptr inbounds nuw i16, ptr %62, i32 1
  store ptr %63, ptr %13, align 8, !tbaa !18
  store i16 %61, ptr %62, align 2, !tbaa !20
  %64 = load ptr, ptr %14, align 8, !tbaa !4
  %65 = getelementptr inbounds i8, ptr %64, i64 2
  store ptr %65, ptr %14, align 8, !tbaa !4
  br label %172

66:                                               ; preds = %31
  %67 = load ptr, ptr %9, align 8, !tbaa !4
  %68 = load ptr, ptr %14, align 8, !tbaa !4
  %69 = ptrtoint ptr %67 to i64
  %70 = ptrtoint ptr %68 to i64
  %71 = sub i64 %69, %70
  %72 = icmp slt i64 %71, 3
  br i1 %72, label %73, label %74

73:                                               ; preds = %66
  store i32 1, ptr %12, align 4, !tbaa !16
  br label %179

74:                                               ; preds = %66
  %75 = load ptr, ptr %14, align 8, !tbaa !4
  %76 = getelementptr inbounds i8, ptr %75, i64 0
  %77 = load i8, ptr %76, align 1, !tbaa !13
  %78 = sext i8 %77 to i32
  %79 = and i32 %78, 15
  %80 = shl i32 %79, 12
  %81 = load ptr, ptr %14, align 8, !tbaa !4
  %82 = getelementptr inbounds i8, ptr %81, i64 1
  %83 = load i8, ptr %82, align 1, !tbaa !13
  %84 = sext i8 %83 to i32
  %85 = and i32 %84, 63
  %86 = shl i32 %85, 6
  %87 = or i32 %80, %86
  %88 = load ptr, ptr %14, align 8, !tbaa !4
  %89 = getelementptr inbounds i8, ptr %88, i64 2
  %90 = load i8, ptr %89, align 1, !tbaa !13
  %91 = sext i8 %90 to i32
  %92 = and i32 %91, 63
  %93 = or i32 %87, %92
  %94 = trunc i32 %93 to i16
  %95 = load ptr, ptr %13, align 8, !tbaa !18
  %96 = getelementptr inbounds nuw i16, ptr %95, i32 1
  store ptr %96, ptr %13, align 8, !tbaa !18
  store i16 %94, ptr %95, align 2, !tbaa !20
  %97 = load ptr, ptr %14, align 8, !tbaa !4
  %98 = getelementptr inbounds i8, ptr %97, i64 3
  store ptr %98, ptr %14, align 8, !tbaa !4
  br label %172

99:                                               ; preds = %31
  call void @llvm.lifetime.start.p0(i64 8, ptr %15) #4
  %100 = load ptr, ptr %11, align 8, !tbaa !18
  %101 = load ptr, ptr %13, align 8, !tbaa !18
  %102 = ptrtoint ptr %100 to i64
  %103 = ptrtoint ptr %101 to i64
  %104 = sub i64 %102, %103
  %105 = sdiv exact i64 %104, 2
  %106 = icmp slt i64 %105, 2
  br i1 %106, label %107, label %108

107:                                              ; preds = %99
  store i32 2, ptr %12, align 4, !tbaa !16
  store i32 5, ptr %16, align 4
  br label %162

108:                                              ; preds = %99
  %109 = load ptr, ptr %9, align 8, !tbaa !4
  %110 = load ptr, ptr %14, align 8, !tbaa !4
  %111 = ptrtoint ptr %109 to i64
  %112 = ptrtoint ptr %110 to i64
  %113 = sub i64 %111, %112
  %114 = icmp slt i64 %113, 4
  br i1 %114, label %115, label %116

115:                                              ; preds = %108
  store i32 1, ptr %12, align 4, !tbaa !16
  store i32 5, ptr %16, align 4
  br label %162

116:                                              ; preds = %108
  %117 = load ptr, ptr %14, align 8, !tbaa !4
  %118 = getelementptr inbounds i8, ptr %117, i64 0
  %119 = load i8, ptr %118, align 1, !tbaa !13
  %120 = sext i8 %119 to i32
  %121 = and i32 %120, 7
  %122 = shl i32 %121, 18
  %123 = load ptr, ptr %14, align 8, !tbaa !4
  %124 = getelementptr inbounds i8, ptr %123, i64 1
  %125 = load i8, ptr %124, align 1, !tbaa !13
  %126 = sext i8 %125 to i32
  %127 = and i32 %126, 63
  %128 = shl i32 %127, 12
  %129 = or i32 %122, %128
  %130 = load ptr, ptr %14, align 8, !tbaa !4
  %131 = getelementptr inbounds i8, ptr %130, i64 2
  %132 = load i8, ptr %131, align 1, !tbaa !13
  %133 = sext i8 %132 to i32
  %134 = and i32 %133, 63
  %135 = shl i32 %134, 6
  %136 = or i32 %129, %135
  %137 = load ptr, ptr %14, align 8, !tbaa !4
  %138 = getelementptr inbounds i8, ptr %137, i64 3
  %139 = load i8, ptr %138, align 1, !tbaa !13
  %140 = sext i8 %139 to i32
  %141 = and i32 %140, 63
  %142 = or i32 %136, %141
  %143 = sext i32 %142 to i64
  store i64 %143, ptr %15, align 8, !tbaa !11
  %144 = load i64, ptr %15, align 8, !tbaa !11
  %145 = sub i64 %144, 65536
  store i64 %145, ptr %15, align 8, !tbaa !11
  %146 = load i64, ptr %15, align 8, !tbaa !11
  %147 = lshr i64 %146, 10
  %148 = or i64 %147, 55296
  %149 = trunc i64 %148 to i16
  %150 = load ptr, ptr %13, align 8, !tbaa !18
  %151 = getelementptr inbounds i16, ptr %150, i64 0
  store i16 %149, ptr %151, align 2, !tbaa !20
  %152 = load i64, ptr %15, align 8, !tbaa !11
  %153 = and i64 %152, 1023
  %154 = or i64 %153, 56320
  %155 = trunc i64 %154 to i16
  %156 = load ptr, ptr %13, align 8, !tbaa !18
  %157 = getelementptr inbounds i16, ptr %156, i64 1
  store i16 %155, ptr %157, align 2, !tbaa !20
  %158 = load ptr, ptr %13, align 8, !tbaa !18
  %159 = getelementptr inbounds i16, ptr %158, i64 2
  store ptr %159, ptr %13, align 8, !tbaa !18
  %160 = load ptr, ptr %14, align 8, !tbaa !4
  %161 = getelementptr inbounds i8, ptr %160, i64 4
  store ptr %161, ptr %14, align 8, !tbaa !4
  store i32 0, ptr %16, align 4
  br label %162

162:                                              ; preds = %115, %107, %116
  call void @llvm.lifetime.end.p0(i64 8, ptr %15) #4
  %163 = load i32, ptr %16, align 4
  switch i32 %163, label %185 [
    i32 0, label %164
    i32 5, label %179
  ]

164:                                              ; preds = %162
  br label %172

165:                                              ; preds = %31
  %166 = load ptr, ptr %14, align 8, !tbaa !4
  %167 = getelementptr inbounds nuw i8, ptr %166, i32 1
  store ptr %167, ptr %14, align 8, !tbaa !4
  %168 = load i8, ptr %166, align 1, !tbaa !13
  %169 = sext i8 %168 to i16
  %170 = load ptr, ptr %13, align 8, !tbaa !18
  %171 = getelementptr inbounds nuw i16, ptr %170, i32 1
  store ptr %171, ptr %13, align 8, !tbaa !18
  store i16 %169, ptr %170, align 2, !tbaa !20
  br label %172

172:                                              ; preds = %165, %164, %74, %48
  br label %21, !llvm.loop !111

173:                                              ; preds = %29
  %174 = load ptr, ptr %14, align 8, !tbaa !4
  %175 = load ptr, ptr %9, align 8, !tbaa !4
  %176 = icmp ult ptr %174, %175
  br i1 %176, label %177, label %178

177:                                              ; preds = %173
  store i32 2, ptr %12, align 4, !tbaa !16
  br label %178

178:                                              ; preds = %177, %173
  br label %179

179:                                              ; preds = %178, %162, %73, %47
  %180 = load ptr, ptr %14, align 8, !tbaa !4
  %181 = load ptr, ptr %8, align 8, !tbaa !9
  store ptr %180, ptr %181, align 8, !tbaa !4
  %182 = load ptr, ptr %13, align 8, !tbaa !18
  %183 = load ptr, ptr %10, align 8, !tbaa !47
  store ptr %182, ptr %183, align 8, !tbaa !18
  %184 = load i32, ptr %12, align 4, !tbaa !16
  store i32 %184, ptr %6, align 4
  store i32 1, ptr %16, align 4
  br label %185

185:                                              ; preds = %179, %162
  call void @llvm.lifetime.end.p0(i64 8, ptr %14) #4
  call void @llvm.lifetime.end.p0(i64 8, ptr %13) #4
  call void @llvm.lifetime.end.p0(i64 4, ptr %12) #4
  %186 = load i32, ptr %6, align 4
  ret i32 %186
}