; Function Attrs: nofree norecurse nosync nounwind memory(readwrite, inaccessiblemem: none) uwtable
define internal range(i32 0, 3) i32 @utf8_toUtf16(ptr noundef readonly captures(none) %0, ptr noundef captures(none) %1, ptr noundef %2, ptr noundef captures(none) %3, ptr noundef %4) #9 {
  %6 = load ptr, ptr %3, align 8, !tbaa !34
  %7 = load ptr, ptr %1, align 8, !tbaa !4
  %8 = icmp ult ptr %7, %2
  %9 = icmp ult ptr %6, %4
  %10 = select i1 %8, i1 %9, i1 false
  br i1 %10, label %.lr.ph, label %._crit_edge

.lr.ph:                                           ; preds = %5
  %11 = getelementptr inbounds nuw i8, ptr %0, i64 128
  %12 = ptrtoint ptr %4 to i64
  %13 = ptrtoint ptr %2 to i64
  br label %14

14:                                               ; preds = %.lr.ph, %96
  %.04768 = phi ptr [ %7, %.lr.ph ], [ %.2, %96 ]
  %.04867 = phi ptr [ %6, %.lr.ph ], [ %.250, %96 ]
  %15 = load i8, ptr %.04768, align 1, !tbaa !9
  %16 = zext i8 %15 to i64
  %17 = getelementptr inbounds nuw [256 x i8], ptr %11, i64 0, i64 %16
  %18 = load i8, ptr %17, align 1, !tbaa !9
  switch i8 %18, label %92 [
    i8 5, label %19
    i8 6, label %34
    i8 7, label %54
  ]

19:                                               ; preds = %14
  %20 = ptrtoint ptr %.04768 to i64
  %21 = sub i64 %13, %20
  %22 = icmp slt i64 %21, 2
  br i1 %22, label %.thread, label %23

23:                                               ; preds = %19
  %24 = and i8 %15, 31
  %25 = zext nneg i8 %24 to i16
  %26 = shl nuw nsw i16 %25, 6
  %27 = getelementptr inbounds nuw i8, ptr %.04768, i64 1
  %28 = load i8, ptr %27, align 1, !tbaa !9
  %29 = and i8 %28, 63
  %30 = zext nneg i8 %29 to i16
  %31 = or disjoint i16 %26, %30
  %32 = getelementptr inbounds nuw i8, ptr %.04867, i64 2
  store i16 %31, ptr %.04867, align 2, !tbaa !12
  %33 = getelementptr inbounds nuw i8, ptr %.04768, i64 2
  br label %96

34:                                               ; preds = %14
  %35 = ptrtoint ptr %.04768 to i64
  %36 = sub i64 %13, %35
  %37 = icmp slt i64 %36, 3
  br i1 %37, label %.thread, label %38

38:                                               ; preds = %34
  %39 = zext i8 %15 to i16
  %40 = shl i16 %39, 12
  %41 = getelementptr inbounds nuw i8, ptr %.04768, i64 1
  %42 = load i8, ptr %41, align 1, !tbaa !9
  %43 = and i8 %42, 63
  %44 = zext nneg i8 %43 to i16
  %45 = shl nuw nsw i16 %44, 6
  %46 = or disjoint i16 %45, %40
  %47 = getelementptr inbounds nuw i8, ptr %.04768, i64 2
  %48 = load i8, ptr %47, align 1, !tbaa !9
  %49 = and i8 %48, 63
  %50 = zext nneg i8 %49 to i16
  %51 = or disjoint i16 %46, %50
  %52 = getelementptr inbounds nuw i8, ptr %.04867, i64 2
  store i16 %51, ptr %.04867, align 2, !tbaa !12
  %53 = getelementptr inbounds nuw i8, ptr %.04768, i64 3
  br label %96

54:                                               ; preds = %14
  %55 = ptrtoint ptr %.04867 to i64
  %56 = sub i64 %12, %55
  %57 = icmp slt i64 %56, 3
  br i1 %57, label %.thread, label %58

58:                                               ; preds = %54
  %59 = ptrtoint ptr %.04768 to i64
  %60 = sub i64 %13, %59
  %61 = icmp slt i64 %60, 4
  br i1 %61, label %.thread, label %62

62:                                               ; preds = %58
  %63 = and i8 %15, 7
  %64 = zext nneg i8 %63 to i64
  %65 = shl nuw nsw i64 %64, 18
  %66 = getelementptr inbounds nuw i8, ptr %.04768, i64 1
  %67 = load i8, ptr %66, align 1, !tbaa !9
  %68 = and i8 %67, 63
  %69 = zext nneg i8 %68 to i64
  %70 = shl nuw nsw i64 %69, 12
  %71 = getelementptr inbounds nuw i8, ptr %.04768, i64 2
  %72 = load i8, ptr %71, align 1, !tbaa !9
  %73 = and i8 %72, 63
  %74 = zext nneg i8 %73 to i64
  %75 = shl nuw nsw i64 %74, 6
  %76 = getelementptr inbounds nuw i8, ptr %.04768, i64 3
  %77 = load i8, ptr %76, align 1, !tbaa !9
  %78 = and i8 %77, 63
  %79 = zext nneg i8 %78 to i64
  %80 = add nuw nsw i64 %65, 16711680
  %81 = add nuw nsw i64 %80, %70
  %82 = or disjoint i64 %81, %75
  %83 = lshr i64 %82, 10
  %84 = trunc nuw nsw i64 %83 to i16
  %85 = or i16 %84, -10240
  store i16 %85, ptr %.04867, align 2, !tbaa !12
  %86 = or disjoint i64 %75, %79
  %87 = trunc nuw nsw i64 %86 to i16
  %88 = or i16 %87, -9216
  %89 = getelementptr inbounds nuw i8, ptr %.04867, i64 2
  store i16 %88, ptr %89, align 2, !tbaa !12
  %90 = getelementptr inbounds nuw i8, ptr %.04867, i64 4
  %91 = getelementptr inbounds nuw i8, ptr %.04768, i64 4
  br label %96

92:                                               ; preds = %14
  %93 = getelementptr inbounds nuw i8, ptr %.04768, i64 1
  %94 = sext i8 %15 to i16
  %95 = getelementptr inbounds nuw i8, ptr %.04867, i64 2
  store i16 %94, ptr %.04867, align 2, !tbaa !12
  br label %96

96:                                               ; preds = %62, %92, %38, %23
  %.250 = phi ptr [ %95, %92 ], [ %90, %62 ], [ %52, %38 ], [ %32, %23 ]
  %.2 = phi ptr [ %93, %92 ], [ %91, %62 ], [ %53, %38 ], [ %33, %23 ]
  %97 = icmp ult ptr %.2, %2
  %98 = icmp ult ptr %.250, %4
  %99 = select i1 %97, i1 %98, i1 false
  br i1 %99, label %14, label %._crit_edge, !llvm.loop !94

._crit_edge:                                      ; preds = %96, %5
  %.048.lcssa = phi ptr [ %6, %5 ], [ %.250, %96 ]
  %.047.lcssa = phi ptr [ %7, %5 ], [ %.2, %96 ]
  %.lcssa = phi i1 [ %8, %5 ], [ %97, %96 ]
  %spec.select = select i1 %.lcssa, i32 2, i32 0
  br label %.thread

.thread:                                          ; preds = %58, %54, %19, %34, %._crit_edge
  %.04866 = phi ptr [ %.048.lcssa, %._crit_edge ], [ %.04867, %34 ], [ %.04867, %19 ], [ %.04867, %54 ], [ %.04867, %58 ]
  %.04764 = phi ptr [ %.047.lcssa, %._crit_edge ], [ %.04768, %34 ], [ %.04768, %19 ], [ %.04768, %54 ], [ %.04768, %58 ]
  %.153 = phi i32 [ %spec.select, %._crit_edge ], [ 1, %58 ], [ 2, %54 ], [ 1, %19 ], [ 1, %34 ]
  store ptr %.04764, ptr %1, align 8, !tbaa !4
  store ptr %.04866, ptr %3, align 8, !tbaa !34
  ret i32 %.153
}